target datalayout = "e-m:e-p270:32:32-p271:32:32-p272:64:64-i64:64-i128:128-f80:128-n8:16:32:64-S128"
target triple = "x86_64-unknown-linux-gnu"

; Function Attrs: mustprogress uwtable
define linkonce_odr void @_ZN7rocksdb10PutFixed32EPNSt7__cxx1112basic_stringIcSt11char_traitsIcESaIcEEEj(ptr noundef %dst, i32 noundef %value) #2 comdat {
entry:
  %dst.addr = alloca ptr, align 8
  %value.addr = alloca i32, align 4
  store ptr %dst, ptr %dst.addr, align 8
  store i32 %value, ptr %value.addr, align 4
  %0 = load ptr, ptr %dst.addr, align 8
  %call = call noundef nonnull align 8 dereferenceable(32) ptr @_ZNSt7__cxx1112basic_stringIcSt11char_traitsIcESaIcEE6appendEPKcm(ptr noundef nonnull align 8 dereferenceable(32) %0, ptr noundef %value.addr, i64 noundef 4)
  ret void
}

; Function Attrs: mustprogress uwtable
define void @_ZN7rocksdb22CalculateTypedChecksumERKNS_12ChecksumTypeEPKcmPNSt7__cxx1112basic_stringIcSt11char_traitsIcESaIcEEE(ptr noundef nonnull align 1 dereferenceable(1) %checksum_type, ptr noundef %data, i64 noundef %size, ptr noundef %checksum) #2 {
entry:
  %checksum_type.addr = alloca ptr, align 8
  %data.addr = alloca ptr, align 8
  %size.addr = alloca i64, align 8
  %checksum.addr = alloca ptr, align 8
  %v_crc32c = alloca i32, align 4
  %v = alloca i32, align 4
  store ptr %checksum_type, ptr %checksum_type.addr, align 8
  store ptr %data, ptr %data.addr, align 8
  store i64 %size, ptr %size.addr, align 8
  store ptr %checksum, ptr %checksum.addr, align 8
  %0 = load ptr, ptr %checksum_type.addr, align 8
  %1 = load i8, ptr %0, align 1
  %conv = sext i8 %1 to i32
  %cmp = icmp eq i32 %conv, 1
  br i1 %cmp, label %if.then, label %if.else

if.then:                                          ; preds = %entry
  %2 = load ptr, ptr %data.addr, align 8
  %3 = load i64, ptr %size.addr, align 8
  %call = call noundef i32 @_ZN7rocksdb6crc32c6ExtendEjPKcm(i32 noundef 0, ptr noundef %2, i64 noundef %3)
  store i32 %call, ptr %v_crc32c, align 4
  %4 = load ptr, ptr %checksum.addr, align 8
  %5 = load i32, ptr %v_crc32c, align 4
  call void @_ZN7rocksdb10PutFixed32EPNSt7__cxx1112basic_stringIcSt11char_traitsIcESaIcEEEj(ptr noundef %4, i32 noundef %5)
  br label %return

if.else:                                          ; preds = %entry
  %6 = load ptr, ptr %checksum_type.addr, align 8
  %7 = load i8, ptr %6, align 1
  %conv1 = sext i8 %7 to i32
  %cmp2 = icmp eq i32 %conv1, 2
  br i1 %cmp2, label %if.then3, label %if.end

if.then3:                                         ; preds = %if.else
  %8 = load ptr, ptr %data.addr, align 8
  %9 = load i64, ptr %size.addr, align 8
  %call4 = call i32 @ROCKSDB_XXH32(ptr noundef %8, i64 noundef %9, i32 noundef 0) #15
  store i32 %call4, ptr %v, align 4
  %10 = load ptr, ptr %checksum.addr, align 8
  %11 = load i32, ptr %v, align 4
  call void @_ZN7rocksdb10PutFixed32EPNSt7__cxx1112basic_stringIcSt11char_traitsIcESaIcEEEj(ptr noundef %10, i32 noundef %11)
  br label %if.end

if.end:                                           ; preds = %if.then3, %if.else
  br label %if.end5

if.end5:                                          ; preds = %if.end
  br label %return

return:                                           ; preds = %if.end5, %if.then
  ret void
}