; Function Attrs: mustprogress uwtable
define void @_ZN7rocksdb22CalculateTypedChecksumERKNS_12ChecksumTypeEPKcmPNSt7__cxx1112basic_stringIcSt11char_traitsIcESaIcEEE(ptr nocapture noundef nonnull readonly align 1 dereferenceable(1) %checksum_type, ptr noundef %data, i64 noundef %size, ptr noundef %checksum) local_unnamed_addr #2 {
entry:
  %value.addr.i5 = alloca i32, align 4
  %value.addr.i = alloca i32, align 4
  %0 = load i8, ptr %checksum_type, align 1
  switch i8 %0, label %return [
    i8 1, label %if.then
    i8 2, label %if.then3
  ]

if.then:                                          ; preds = %entry
  %call = tail call noundef i32 @_ZN7rocksdb6crc32c6ExtendEjPKcm(i32 noundef 0, ptr noundef %data, i64 noundef %size)
  call void @llvm.lifetime.start.p0(i64 4, ptr nonnull %value.addr.i)
  store i32 %call, ptr %value.addr.i, align 4
  %call.i = call noundef nonnull align 8 dereferenceable(32) ptr @_ZNSt7__cxx1112basic_stringIcSt11char_traitsIcESaIcEE6appendEPKcm(ptr noundef nonnull align 8 dereferenceable(32) %checksum, ptr noundef nonnull %value.addr.i, i64 noundef 4)
  call void @llvm.lifetime.end.p0(i64 4, ptr nonnull %value.addr.i)
  br label %return

if.then3:                                         ; preds = %entry
  %call4 = tail call i32 @ROCKSDB_XXH32(ptr noundef %data, i64 noundef %size, i32 noundef 0) #22
  call void @llvm.lifetime.start.p0(i64 4, ptr nonnull %value.addr.i5)
  store i32 %call4, ptr %value.addr.i5, align 4
  %call.i6 = call noundef nonnull align 8 dereferenceable(32) ptr @_ZNSt7__cxx1112basic_stringIcSt11char_traitsIcESaIcEE6appendEPKcm(ptr noundef nonnull align 8 dereferenceable(32) %checksum, ptr noundef nonnull %value.addr.i5, i64 noundef 4)
  call void @llvm.lifetime.end.p0(i64 4, ptr nonnull %value.addr.i5)
  br label %return

return:                                           ; preds = %entry, %if.then3, %if.then
  ret void
}